target datalayout = "e-m:e-p270:32:32-p271:32:32-p272:64:64-i64:64-i128:128-f80:128-n8:16:32:64-S128"
target triple = "x86_64-unknown-linux-gnu"

%struct.QTailQLink = type { ptr, ptr }
%struct.InputEvent = type { i32, %union.anon.1 }
%union.anon.1 = type { %struct.InputKeyEventWrapper }
%struct.InputKeyEventWrapper = type { ptr }
%struct.InputKeyEvent = type { ptr, i8 }
%struct.KeyValue = type { i32, %union.anon.2 }
%union.anon.2 = type { %struct.IntWrapper }
%struct.IntWrapper = type { i64 }
%struct.QKeyCodeWrapper = type { i32 }
%struct.QemuInputEventQueue = type { i32, ptr, i32, ptr, ptr, %union.anon.3 }
%union.anon.3 = type { %struct.QTailQLink }

@.str = private unnamed_addr constant [19 x i8] c"../qemu/ui/input.c\00", align 1
@.str.3 = private unnamed_addr constant [92 x i8] c"!(evt->type == INPUT_EVENT_KIND_KEY && evt->u.key.data->key->type == KEY_VALUE_KIND_NUMBER)\00", align 1
@__PRETTY_FUNCTION__.qemu_input_event_send = private unnamed_addr constant [56 x i8] c"void qemu_input_event_send(QemuConsole *, InputEvent *)\00", align 1
@queue_count = internal global i32 0, align 4
@__func__.qemu_input_queue_process = private unnamed_addr constant [25 x i8] c"qemu_input_queue_process\00", align 1
@.str.20 = private unnamed_addr constant [21 x i8] c"!QTAILQ_EMPTY(queue)\00", align 1
@.str.21 = private unnamed_addr constant [37 x i8] c"item->type == QEMU_INPUT_QUEUE_DELAY\00", align 1

; Function Attrs: nounwind sspstrong uwtable
define dso_local void @qemu_input_event_sync() #0 {
entry:
  %call = call zeroext i1 @runstate_is_running()
  br i1 %call, label %if.end, label %land.lhs.true

land.lhs.true:                                    ; preds = %entry
  %call1 = call zeroext i1 @runstate_check(i32 noundef 12)
  br i1 %call1, label %if.end, label %if.then

if.then:                                          ; preds = %land.lhs.true
  br label %return

if.end:                                           ; preds = %land.lhs.true, %entry
  call void @replay_input_sync_event()
  br label %return

return:                                           ; preds = %if.end, %if.then
  ret void
}

; Function Attrs: nounwind sspstrong uwtable
define dso_local void @qemu_input_event_send(ptr noundef %src, ptr noundef %evt) #0 {
entry:
  %src.addr = alloca ptr, align 8
  %evt.addr = alloca ptr, align 8
  store ptr %src, ptr %src.addr, align 8
  store ptr %evt, ptr %evt.addr, align 8
  %0 = load ptr, ptr %evt.addr, align 8
  %type = getelementptr inbounds %struct.InputEvent, ptr %0, i32 0, i32 0
  %1 = load i32, ptr %type, align 8
  %cmp = icmp eq i32 %1, 0
  br i1 %cmp, label %land.lhs.true, label %if.then

land.lhs.true:                                    ; preds = %entry
  %2 = load ptr, ptr %evt.addr, align 8
  %u = getelementptr inbounds %struct.InputEvent, ptr %2, i32 0, i32 1
  %data = getelementptr inbounds %struct.InputKeyEventWrapper, ptr %u, i32 0, i32 0
  %3 = load ptr, ptr %data, align 8
  %key = getelementptr inbounds %struct.InputKeyEvent, ptr %3, i32 0, i32 0
  %4 = load ptr, ptr %key, align 8
  %type1 = getelementptr inbounds %struct.KeyValue, ptr %4, i32 0, i32 0
  %5 = load i32, ptr %type1, align 8
  %cmp2 = icmp eq i32 %5, 0
  br i1 %cmp2, label %if.else, label %if.then

if.then:                                          ; preds = %land.lhs.true, %entry
  br label %if.end

if.else:                                          ; preds = %land.lhs.true
  call void @__assert_fail(ptr noundef @.str.3, ptr noundef @.str, i32 noundef 362, ptr noundef @__PRETTY_FUNCTION__.qemu_input_event_send) #8
  unreachable

if.end:                                           ; preds = %if.then
  %6 = load ptr, ptr %evt.addr, align 8
  %type3 = getelementptr inbounds %struct.InputEvent, ptr %6, i32 0, i32 0
  %7 = load i32, ptr %type3, align 8
  %cmp4 = icmp eq i32 %7, 0
  br i1 %cmp4, label %land.lhs.true5, label %if.end18

land.lhs.true5:                                   ; preds = %if.end
  %8 = load ptr, ptr %evt.addr, align 8
  %u6 = getelementptr inbounds %struct.InputEvent, ptr %8, i32 0, i32 1
  %data7 = getelementptr inbounds %struct.InputKeyEventWrapper, ptr %u6, i32 0, i32 0
  %9 = load ptr, ptr %data7, align 8
  %key8 = getelementptr inbounds %struct.InputKeyEvent, ptr %9, i32 0, i32 0
  %10 = load ptr, ptr %key8, align 8
  %u9 = getelementptr inbounds %struct.KeyValue, ptr %10, i32 0, i32 1
  %data10 = getelementptr inbounds %struct.QKeyCodeWrapper, ptr %u9, i32 0, i32 0
  %11 = load i32, ptr %data10, align 8
  %cmp11 = icmp eq i32 %11, 80
  br i1 %cmp11, label %if.then12, label %if.end18

if.then12:                                        ; preds = %land.lhs.true5
  %12 = load ptr, ptr %evt.addr, align 8
  %u13 = getelementptr inbounds %struct.InputEvent, ptr %12, i32 0, i32 1
  %data14 = getelementptr inbounds %struct.InputKeyEventWrapper, ptr %u13, i32 0, i32 0
  %13 = load ptr, ptr %data14, align 8
  %key15 = getelementptr inbounds %struct.InputKeyEvent, ptr %13, i32 0, i32 0
  %14 = load ptr, ptr %key15, align 8
  %u16 = getelementptr inbounds %struct.KeyValue, ptr %14, i32 0, i32 1
  %data17 = getelementptr inbounds %struct.QKeyCodeWrapper, ptr %u16, i32 0, i32 0
  store i32 94, ptr %data17, align 8
  br label %if.end18

if.end18:                                         ; preds = %if.then12, %land.lhs.true5, %if.end
  %call = call zeroext i1 @runstate_is_running()
  br i1 %call, label %if.end22, label %land.lhs.true19

land.lhs.true19:                                  ; preds = %if.end18
  %call20 = call zeroext i1 @runstate_check(i32 noundef 12)
  br i1 %call20, label %if.end22, label %if.then21

if.then21:                                        ; preds = %land.lhs.true19
  br label %return

if.end22:                                         ; preds = %land.lhs.true19, %if.end18
  %15 = load ptr, ptr %src.addr, align 8
  %16 = load ptr, ptr %evt.addr, align 8
  call void @replay_input_event(ptr noundef %15, ptr noundef %16)
  br label %return

return:                                           ; preds = %if.end22, %if.then21
  ret void
}

; Function Attrs: nounwind sspstrong uwtable
define internal i64 @qemu_clock_get_ms(i32 noundef %type) #0 {
entry:
  %type.addr = alloca i32, align 4
  store i32 %type, ptr %type.addr, align 4
  %0 = load i32, ptr %type.addr, align 4
  %call = call i64 @qemu_clock_get_ns(i32 noundef %0)
  %div = sdiv i64 %call, 1000000
  ret i64 %div
}

; Function Attrs: nounwind sspstrong uwtable
define internal void @qemu_input_queue_process(ptr noundef %opaque) #0 {
entry:
  %opaque.addr = alloca ptr, align 8
  %queue = alloca ptr, align 8
  %item = alloca ptr, align 8
  store ptr %opaque, ptr %opaque.addr, align 8
  %0 = load ptr, ptr %opaque.addr, align 8
  store ptr %0, ptr %queue, align 8
  br label %do.body

do.body:                                          ; preds = %entry
  %1 = load ptr, ptr %queue, align 8
  %2 = load ptr, ptr %1, align 8
  %cmp = icmp eq ptr %2, null
  br i1 %cmp, label %if.else, label %if.then

if.then:                                          ; preds = %do.body
  br label %if.end

if.else:                                          ; preds = %do.body
  call void @g_assertion_message_expr(ptr noundef null, ptr noundef @.str, i32 noundef 270, ptr noundef @__func__.qemu_input_queue_process, ptr noundef @.str.20) #9
  unreachable

if.end:                                           ; preds = %if.then
  br label %do.end

do.end:                                           ; preds = %if.end
  %3 = load ptr, ptr %queue, align 8
  %4 = load ptr, ptr %3, align 8
  store ptr %4, ptr %item, align 8
  br label %do.body1

do.body1:                                         ; preds = %do.end
  %5 = load ptr, ptr %item, align 8
  %type = getelementptr inbounds %struct.QemuInputEventQueue, ptr %5, i32 0, i32 0
  %6 = load i32, ptr %type, align 8
  %cmp2 = icmp eq i32 %6, 1
  br i1 %cmp2, label %if.then3, label %if.else4

if.then3:                                         ; preds = %do.body1
  br label %if.end5

if.else4:                                         ; preds = %do.body1
  call void @g_assertion_message_expr(ptr noundef null, ptr noundef @.str, i32 noundef 272, ptr noundef @__func__.qemu_input_queue_process, ptr noundef @.str.21) #9
  unreachable

if.end5:                                          ; preds = %if.then3
  br label %do.end6

do.end6:                                          ; preds = %if.end5
  br label %do.body7

do.body7:                                         ; preds = %do.end6
  %7 = load ptr, ptr %item, align 8
  %node = getelementptr inbounds %struct.QemuInputEventQueue, ptr %7, i32 0, i32 5
  %8 = load ptr, ptr %node, align 8
  %cmp8 = icmp ne ptr %8, null
  br i1 %cmp8, label %if.then9, label %if.else14

if.then9:                                         ; preds = %do.body7
  %9 = load ptr, ptr %item, align 8
  %node10 = getelementptr inbounds %struct.QemuInputEventQueue, ptr %9, i32 0, i32 5
  %tql_prev = getelementptr inbounds %struct.QTailQLink, ptr %node10, i32 0, i32 1
  %10 = load ptr, ptr %tql_prev, align 8
  %11 = load ptr, ptr %item, align 8
  %node11 = getelementptr inbounds %struct.QemuInputEventQueue, ptr %11, i32 0, i32 5
  %12 = load ptr, ptr %node11, align 8
  %node12 = getelementptr inbounds %struct.QemuInputEventQueue, ptr %12, i32 0, i32 5
  %tql_prev13 = getelementptr inbounds %struct.QTailQLink, ptr %node12, i32 0, i32 1
  store ptr %10, ptr %tql_prev13, align 8
  br label %if.end18

if.else14:                                        ; preds = %do.body7
  %13 = load ptr, ptr %item, align 8
  %node15 = getelementptr inbounds %struct.QemuInputEventQueue, ptr %13, i32 0, i32 5
  %tql_prev16 = getelementptr inbounds %struct.QTailQLink, ptr %node15, i32 0, i32 1
  %14 = load ptr, ptr %tql_prev16, align 8
  %15 = load ptr, ptr %queue, align 8
  %tql_prev17 = getelementptr inbounds %struct.QTailQLink, ptr %15, i32 0, i32 1
  store ptr %14, ptr %tql_prev17, align 8
  br label %if.end18

if.end18:                                         ; preds = %if.else14, %if.then9
  %16 = load ptr, ptr %item, align 8
  %node19 = getelementptr inbounds %struct.QemuInputEventQueue, ptr %16, i32 0, i32 5
  %17 = load ptr, ptr %node19, align 8
  %18 = load ptr, ptr %item, align 8
  %node20 = getelementptr inbounds %struct.QemuInputEventQueue, ptr %18, i32 0, i32 5
  %tql_prev21 = getelementptr inbounds %struct.QTailQLink, ptr %node20, i32 0, i32 1
  %19 = load ptr, ptr %tql_prev21, align 8
  %tql_next = getelementptr inbounds %struct.QTailQLink, ptr %19, i32 0, i32 0
  store ptr %17, ptr %tql_next, align 8
  %20 = load ptr, ptr %item, align 8
  %node22 = getelementptr inbounds %struct.QemuInputEventQueue, ptr %20, i32 0, i32 5
  %tql_prev23 = getelementptr inbounds %struct.QTailQLink, ptr %node22, i32 0, i32 1
  store ptr null, ptr %tql_prev23, align 8
  %21 = load ptr, ptr %item, align 8
  %node24 = getelementptr inbounds %struct.QemuInputEventQueue, ptr %21, i32 0, i32 5
  %tql_next25 = getelementptr inbounds %struct.QTailQLink, ptr %node24, i32 0, i32 0
  store ptr null, ptr %tql_next25, align 8
  %22 = load ptr, ptr %item, align 8
  %node26 = getelementptr inbounds %struct.QemuInputEventQueue, ptr %22, i32 0, i32 5
  store ptr null, ptr %node26, align 8
  br label %do.end27

do.end27:                                         ; preds = %if.end18
  %23 = load i32, ptr @queue_count, align 4
  %dec = add i32 %23, -1
  store i32 %dec, ptr @queue_count, align 4
  %24 = load ptr, ptr %item, align 8
  call void @g_free(ptr noundef %24)
  br label %while.cond

while.cond:                                       ; preds = %do.end57, %do.end27
  %25 = load ptr, ptr %queue, align 8
  %26 = load ptr, ptr %25, align 8
  %cmp28 = icmp eq ptr %26, null
  %lnot = xor i1 %cmp28, true
  br i1 %lnot, label %while.body, label %while.end

while.body:                                       ; preds = %while.cond
  %27 = load ptr, ptr %queue, align 8
  %28 = load ptr, ptr %27, align 8
  store ptr %28, ptr %item, align 8
  %29 = load ptr, ptr %item, align 8
  %type29 = getelementptr inbounds %struct.QemuInputEventQueue, ptr %29, i32 0, i32 0
  %30 = load i32, ptr %type29, align 8
  switch i32 %30, label %sw.epilog [
    i32 1, label %sw.bb
    i32 2, label %sw.bb30
    i32 3, label %sw.bb32
  ]

sw.bb:                                            ; preds = %while.body
  %31 = load ptr, ptr %item, align 8
  %timer = getelementptr inbounds %struct.QemuInputEventQueue, ptr %31, i32 0, i32 1
  %32 = load ptr, ptr %timer, align 8
  %call = call i64 @qemu_clock_get_ms(i32 noundef 1)
  %33 = load ptr, ptr %item, align 8
  %delay_ms = getelementptr inbounds %struct.QemuInputEventQueue, ptr %33, i32 0, i32 2
  %34 = load i32, ptr %delay_ms, align 8
  %conv = zext i32 %34 to i64
  %add = add i64 %call, %conv
  call void @timer_mod(ptr noundef %32, i64 noundef %add)
  br label %while.end

sw.bb30:                                          ; preds = %while.body
  %35 = load ptr, ptr %item, align 8
  %src = getelementptr inbounds %struct.QemuInputEventQueue, ptr %35, i32 0, i32 3
  %36 = load ptr, ptr %src, align 8
  %37 = load ptr, ptr %item, align 8
  %evt = getelementptr inbounds %struct.QemuInputEventQueue, ptr %37, i32 0, i32 4
  %38 = load ptr, ptr %evt, align 8
  call void @qemu_input_event_send(ptr noundef %36, ptr noundef %38)
  %39 = load ptr, ptr %item, align 8
  %evt31 = getelementptr inbounds %struct.QemuInputEventQueue, ptr %39, i32 0, i32 4
  %40 = load ptr, ptr %evt31, align 8
  call void @qapi_free_InputEvent(ptr noundef %40)
  br label %sw.epilog

sw.bb32:                                          ; preds = %while.body
  call void @qemu_input_event_sync()
  br label %sw.epilog

sw.epilog:                                        ; preds = %sw.bb32, %sw.bb30, %while.body
  br label %do.body33

do.body33:                                        ; preds = %sw.epilog
  %41 = load ptr, ptr %item, align 8
  %node34 = getelementptr inbounds %struct.QemuInputEventQueue, ptr %41, i32 0, i32 5
  %42 = load ptr, ptr %node34, align 8
  %cmp35 = icmp ne ptr %42, null
  br i1 %cmp35, label %if.then37, label %if.else43

if.then37:                                        ; preds = %do.body33
  %43 = load ptr, ptr %item, align 8
  %node38 = getelementptr inbounds %struct.QemuInputEventQueue, ptr %43, i32 0, i32 5
  %tql_prev39 = getelementptr inbounds %struct.QTailQLink, ptr %node38, i32 0, i32 1
  %44 = load ptr, ptr %tql_prev39, align 8
  %45 = load ptr, ptr %item, align 8
  %node40 = getelementptr inbounds %struct.QemuInputEventQueue, ptr %45, i32 0, i32 5
  %46 = load ptr, ptr %node40, align 8
  %node41 = getelementptr inbounds %struct.QemuInputEventQueue, ptr %46, i32 0, i32 5
  %tql_prev42 = getelementptr inbounds %struct.QTailQLink, ptr %node41, i32 0, i32 1
  store ptr %44, ptr %tql_prev42, align 8
  br label %if.end47

if.else43:                                        ; preds = %do.body33
  %47 = load ptr, ptr %item, align 8
  %node44 = getelementptr inbounds %struct.QemuInputEventQueue, ptr %47, i32 0, i32 5
  %tql_prev45 = getelementptr inbounds %struct.QTailQLink, ptr %node44, i32 0, i32 1
  %48 = load ptr, ptr %tql_prev45, align 8
  %49 = load ptr, ptr %queue, align 8
  %tql_prev46 = getelementptr inbounds %struct.QTailQLink, ptr %49, i32 0, i32 1
  store ptr %48, ptr %tql_prev46, align 8
  br label %if.end47

if.end47:                                         ; preds = %if.else43, %if.then37
  %50 = load ptr, ptr %item, align 8
  %node48 = getelementptr inbounds %struct.QemuInputEventQueue, ptr %50, i32 0, i32 5
  %51 = load ptr, ptr %node48, align 8
  %52 = load ptr, ptr %item, align 8
  %node49 = getelementptr inbounds %struct.QemuInputEventQueue, ptr %52, i32 0, i32 5
  %tql_prev50 = getelementptr inbounds %struct.QTailQLink, ptr %node49, i32 0, i32 1
  %53 = load ptr, ptr %tql_prev50, align 8
  %tql_next51 = getelementptr inbounds %struct.QTailQLink, ptr %53, i32 0, i32 0
  store ptr %51, ptr %tql_next51, align 8
  %54 = load ptr, ptr %item, align 8
  %node52 = getelementptr inbounds %struct.QemuInputEventQueue, ptr %54, i32 0, i32 5
  %tql_prev53 = getelementptr inbounds %struct.QTailQLink, ptr %node52, i32 0, i32 1
  store ptr null, ptr %tql_prev53, align 8
  %55 = load ptr, ptr %item, align 8
  %node54 = getelementptr inbounds %struct.QemuInputEventQueue, ptr %55, i32 0, i32 5
  %tql_next55 = getelementptr inbounds %struct.QTailQLink, ptr %node54, i32 0, i32 0
  store ptr null, ptr %tql_next55, align 8
  %56 = load ptr, ptr %item, align 8
  %node56 = getelementptr inbounds %struct.QemuInputEventQueue, ptr %56, i32 0, i32 5
  store ptr null, ptr %node56, align 8
  br label %do.end57

do.end57:                                         ; preds = %if.end47
  %57 = load i32, ptr @queue_count, align 4
  %dec58 = add i32 %57, -1
  store i32 %dec58, ptr @queue_count, align 4
  %58 = load ptr, ptr %item, align 8
  call void @g_free(ptr noundef %58)
  br label %while.cond, !llvm.loop !11

while.end:                                        ; preds = %sw.bb, %while.cond
  ret void
}