; Function Attrs: nounwind sspstrong uwtable
define internal void @qemu_input_queue_process(ptr noundef captures(none) %opaque) #0 {
entry:
  %0 = load ptr, ptr %opaque, align 8
  %cmp = icmp eq ptr %0, null
  br i1 %cmp, label %if.else, label %do.end

if.else:                                          ; preds = %entry
  tail call void @g_assertion_message_expr(ptr noundef null, ptr noundef nonnull @.str, i32 noundef 270, ptr noundef nonnull @__func__.qemu_input_queue_process, ptr noundef nonnull @.str.20) #13
  unreachable

do.end:                                           ; preds = %entry
  %1 = load i32, ptr %0, align 8
  %cmp2 = icmp eq i32 %1, 1
  br i1 %cmp2, label %do.body7, label %if.else4

if.else4:                                         ; preds = %do.end
  tail call void @g_assertion_message_expr(ptr noundef null, ptr noundef nonnull @.str, i32 noundef 272, ptr noundef nonnull @__func__.qemu_input_queue_process, ptr noundef nonnull @.str.21) #13
  unreachable

do.body7:                                         ; preds = %do.end
  %node = getelementptr inbounds nuw i8, ptr %0, i64 40
  %2 = load ptr, ptr %node, align 8
  %cmp8.not = icmp eq ptr %2, null
  %tql_prev16 = getelementptr inbounds nuw i8, ptr %0, i64 48
  %3 = load ptr, ptr %tql_prev16, align 8
  br i1 %cmp8.not, label %if.else14, label %if.then9

if.then9:                                         ; preds = %do.body7
  %tql_prev13 = getelementptr inbounds nuw i8, ptr %2, i64 48
  store ptr %3, ptr %tql_prev13, align 8
  br label %if.end18

if.else14:                                        ; preds = %do.body7
  %tql_prev17 = getelementptr inbounds nuw i8, ptr %opaque, i64 8
  store ptr %3, ptr %tql_prev17, align 8
  br label %if.end18

if.end18:                                         ; preds = %if.else14, %if.then9
  %4 = load ptr, ptr %node, align 8
  store ptr %4, ptr %3, align 8
  tail call void @llvm.memset.p0.i64(ptr noundef nonnull align 8 dereferenceable(16) %node, i8 0, i64 16, i1 false)
  %5 = load i32, ptr @queue_count, align 4
  %dec = add i32 %5, -1
  store i32 %dec, ptr @queue_count, align 4
  tail call void @g_free(ptr noundef nonnull %0) #12
  %6 = load ptr, ptr %opaque, align 8
  %cmp28.not39 = icmp eq ptr %6, null
  br i1 %cmp28.not39, label %while.end, label %while.body.lr.ph

while.body.lr.ph:                                 ; preds = %if.end18
  %tql_prev46 = getelementptr inbounds nuw i8, ptr %opaque, i64 8
  br label %while.body

while.body:                                       ; preds = %while.body.lr.ph, %if.end47
  %7 = phi ptr [ %6, %while.body.lr.ph ], [ %23, %if.end47 ]
  %8 = load i32, ptr %7, align 8
  switch i32 %8, label %do.body33 [
    i32 1, label %sw.bb
    i32 2, label %sw.bb30
    i32 3, label %sw.bb32
  ]

sw.bb:                                            ; preds = %while.body
  %timer = getelementptr inbounds nuw i8, ptr %7, i64 8
  %9 = load ptr, ptr %timer, align 8
  %call.i = tail call i64 @qemu_clock_get_ns(i32 noundef 1) #12
  %div.i = sdiv i64 %call.i, 1000000
  %delay_ms = getelementptr inbounds nuw i8, ptr %7, i64 16
  %10 = load i32, ptr %delay_ms, align 8
  %conv = zext i32 %10 to i64
  %add = add nsw i64 %div.i, %conv
  tail call void @timer_mod(ptr noundef %9, i64 noundef %add) #12
  br label %while.end

sw.bb30:                                          ; preds = %while.body
  %src = getelementptr inbounds nuw i8, ptr %7, i64 24
  %11 = load ptr, ptr %src, align 8
  %evt = getelementptr inbounds nuw i8, ptr %7, i64 32
  %12 = load ptr, ptr %evt, align 8
  %13 = load i32, ptr %12, align 8
  %cmp.i = icmp eq i32 %13, 0
  br i1 %cmp.i, label %land.lhs.true.i, label %if.end18.i

land.lhs.true.i:                                  ; preds = %sw.bb30
  %u.i = getelementptr inbounds nuw i8, ptr %12, i64 8
  %14 = load ptr, ptr %u.i, align 8
  %15 = load ptr, ptr %14, align 8
  %16 = load i32, ptr %15, align 8
  %cmp2.i = icmp eq i32 %16, 0
  br i1 %cmp2.i, label %if.else.i, label %land.lhs.true5.i

if.else.i:                                        ; preds = %land.lhs.true.i
  tail call void @__assert_fail(ptr noundef nonnull @.str.3, ptr noundef nonnull @.str, i32 noundef 362, ptr noundef nonnull @__PRETTY_FUNCTION__.qemu_input_event_send) #13
  unreachable

land.lhs.true5.i:                                 ; preds = %land.lhs.true.i
  %u9.i = getelementptr inbounds nuw i8, ptr %15, i64 8
  %17 = load i32, ptr %u9.i, align 8
  %cmp11.i = icmp eq i32 %17, 80
  br i1 %cmp11.i, label %if.then12.i, label %if.end18.i

if.then12.i:                                      ; preds = %land.lhs.true5.i
  store i32 94, ptr %u9.i, align 8
  br label %if.end18.i

if.end18.i:                                       ; preds = %if.then12.i, %land.lhs.true5.i, %sw.bb30
  %call.i34 = tail call zeroext i1 @runstate_is_running() #12
  br i1 %call.i34, label %if.end22.i, label %land.lhs.true19.i

land.lhs.true19.i:                                ; preds = %if.end18.i
  %call20.i = tail call zeroext i1 @runstate_check(i32 noundef 12) #12
  br i1 %call20.i, label %if.end22.i, label %qemu_input_event_send.exit

if.end22.i:                                       ; preds = %land.lhs.true19.i, %if.end18.i
  tail call void @replay_input_event(ptr noundef %11, ptr noundef nonnull %12) #12
  br label %qemu_input_event_send.exit

qemu_input_event_send.exit:                       ; preds = %land.lhs.true19.i, %if.end22.i
  %18 = load ptr, ptr %evt, align 8
  tail call void @qapi_free_InputEvent(ptr noundef %18) #12
  br label %do.body33

sw.bb32:                                          ; preds = %while.body
  %call.i35 = tail call zeroext i1 @runstate_is_running() #12
  br i1 %call.i35, label %if.end.i, label %land.lhs.true.i36

land.lhs.true.i36:                                ; preds = %sw.bb32
  %call1.i = tail call zeroext i1 @runstate_check(i32 noundef 12) #12
  br i1 %call1.i, label %if.end.i, label %do.body33

if.end.i:                                         ; preds = %land.lhs.true.i36, %sw.bb32
  tail call void @replay_input_sync_event() #12
  br label %do.body33

do.body33:                                        ; preds = %if.end.i, %land.lhs.true.i36, %while.body, %qemu_input_event_send.exit
  %node34 = getelementptr inbounds nuw i8, ptr %7, i64 40
  %19 = load ptr, ptr %node34, align 8
  %cmp35.not = icmp eq ptr %19, null
  %tql_prev45 = getelementptr inbounds nuw i8, ptr %7, i64 48
  %20 = load ptr, ptr %tql_prev45, align 8
  br i1 %cmp35.not, label %if.else43, label %if.then37

if.then37:                                        ; preds = %do.body33
  %tql_prev42 = getelementptr inbounds nuw i8, ptr %19, i64 48
  store ptr %20, ptr %tql_prev42, align 8
  br label %if.end47

if.else43:                                        ; preds = %do.body33
  store ptr %20, ptr %tql_prev46, align 8
  br label %if.end47

if.end47:                                         ; preds = %if.else43, %if.then37
  %21 = load ptr, ptr %node34, align 8
  store ptr %21, ptr %20, align 8
  tail call void @llvm.memset.p0.i64(ptr noundef nonnull align 8 dereferenceable(16) %node34, i8 0, i64 16, i1 false)
  %22 = load i32, ptr @queue_count, align 4
  %dec58 = add i32 %22, -1
  store i32 %dec58, ptr @queue_count, align 4
  tail call void @g_free(ptr noundef nonnull %7) #12
  %23 = load ptr, ptr %opaque, align 8
  %cmp28.not = icmp eq ptr %23, null
  br i1 %cmp28.not, label %while.end, label %while.body, !llvm.loop !11

while.end:                                        ; preds = %if.end47, %if.end18, %sw.bb
  ret void
}